Certificate:
    Data:
        Version: 3 (0x2)
        Serial Number: 1 (0x1)
    Signature Algorithm: sha256WithRSAEncryption
        Issuer: C=cn, ST=Liaoning, L=DaLian, O=Kalec, OU=127.0.0.1, CN=127.0.0.1/emailAddress=hyccpq@hotmail.com
        Validity
            Not Before: May 20 07:12:55 2018 GMT
            Not After : May 20 07:12:55 2019 GMT
        Subject: C=cn, ST=Liaoning, O=Kalec, OU=127.0.0.1, CN=127.0.0.1/emailAddress=hyccpq@hotmail.com
        Subject Public Key Info:
            Public Key Algorithm: rsaEncryption
                Public-Key: (4096 bit)
                Modulus:
                    00:a8:0e:a9:8c:3d:90:c1:38:f3:98:b5:b4:25:0a:
                    c1:71:44:82:cc:66:76:0d:08:88:cc:fa:8e:0d:23:
                    29:aa:66:de:30:5a:3a:b0:ff:db:65:94:45:c9:66:
                    ff:29:a4:e1:45:79:3f:e6:f6:dd:74:b4:2b:9b:59:
                    33:fd:cd:d8:5c:a7:94:eb:d5:de:3a:b4:e3:4b:a5:
                    0b:41:7a:b7:70:84:de:e5:48:44:ce:9b:d3:51:68:
                    36:b0:18:ae:9d:50:fc:e3:40:ff:b0:30:1d:a7:a2:
                    67:2c:c2:b1:7f:8d:8d:61:27:45:cf:d3:2f:18:ef:
                    ec:f5:21:c1:fb:e1:37:f9:3f:b6:2a:93:41:7e:7a:
                    8d:12:5e:26:60:61:50:db:b1:05:24:fe:66:6f:81:
                    60:42:fb:ec:8e:e6:14:ad:0c:db:d5:54:9d:5a:d6:
                    a8:59:8a:b4:b5:27:7e:ea:12:05:4d:be:4b:6d:20:
                    c7:0d:37:59:25:0c:aa:e5:a3:4e:a1:f8:ac:35:4e:
                    fa:1f:7c:0c:ad:85:07:7d:e5:e3:41:dc:ee:74:e9:
                    c9:96:75:15:9c:ce:f0:73:e2:16:c7:6e:ce:ab:5c:
                    c2:e1:3c:15:04:d0:a5:94:c5:2c:ae:d8:57:a9:f2:
                    c5:4e:88:72:db:d6:f1:cf:9d:c7:35:50:78:b6:22:
                    e7:9d:07:77:48:13:c9:6e:84:89:46:a6:8a:32:92:
                    3e:1d:b8:a8:00:a9:93:56:a3:83:56:09:d5:dc:bd:
                    d2:06:f8:7a:cf:31:ca:b9:df:70:93:4c:97:aa:71:
                    b6:d4:fc:96:61:a8:29:70:c5:9c:29:aa:6a:f9:54:
                    6c:ca:da:c8:06:9d:fd:70:2f:61:e9:d4:35:c4:64:
                    74:9d:26:76:ea:5f:77:c3:f4:56:dd:0d:1b:a9:22:
                    01:c6:6d:dc:61:c3:56:3a:55:41:9d:c1:e0:c9:cc:
                    56:f3:4a:ac:e7:e5:78:1d:82:a5:08:c2:e6:8d:2c:
                    b0:25:3a:3c:99:c1:dd:70:e4:35:29:c7:9a:e5:03:
                    fb:bc:7c:4f:cf:b7:37:b7:d9:df:c5:e1:e7:97:2b:
                    df:d2:7d:7b:3f:10:4e:54:8c:84:36:52:ec:e9:3b:
                    ac:06:64:fe:f6:2e:58:9e:c7:de:5c:ef:8c:83:03:
                    20:2e:92:4a:30:ab:f6:f8:ad:3b:5d:db:e4:4b:9a:
                    c5:2c:ff:7b:d3:87:14:41:93:d6:b8:75:d1:1b:c0:
                    3d:38:3b:69:88:69:f2:86:5a:ac:6b:96:fa:25:c5:
                    cd:2d:8d:a5:dc:fb:a4:76:e8:4c:95:f5:99:5e:02:
                    ec:1d:35:fb:a0:e2:e5:39:fd:41:19:4c:6f:a5:1e:
                    5c:d7:ff
                Exponent: 65537 (0x10001)
        X509v3 extensions:
            X509v3 Basic Constraints: 
                CA:FALSE
            Netscape Comment: 
                OpenSSL Generated Certificate
            X509v3 Subject Key Identifier: 
                AC:56:A2:C3:54:C5:9B:BA:B3:5B:03:0E:5A:56:74:4E:9C:36:18:7C
            X509v3 Authority Key Identifier: 
                keyid:AC:E7:28:4F:98:FA:B2:CF:35:A5:5F:61:0F:3F:6A:74:EE:F0:E5:22

    Signature Algorithm: sha256WithRSAEncryption
         b6:df:80:41:ac:cc:11:78:ae:c4:42:03:c4:7f:a0:db:5d:10:
         7d:c9:44:51:4f:28:e7:05:f0:21:a3:47:43:d0:14:4e:88:f7:
         69:e5:c4:38:53:8c:98:d7:26:85:7c:0e:30:90:02:70:88:db:
         d4:f9:07:8d:54:06:85:6b:a6:9c:e7:ed:c6:73:7f:66:e3:d4:
         77:1b:6d:99:7c:04:28:d5:d4:9c:e8:40:fd:09:20:eb:de:94:
         9c:90:0d:27:b1:4d:70:e1:0a:84:5c:2b:2a:f1:5a:be:57:3e:
         ac:a9:ad:74:d1:6a:dd:81:d3:9c:a4:1f:9d:85:41:85:4a:5a:
         9e:a7:da:50:9d:bf:2c:00:4a:76:63:d8:c2:a0:70:07:2b:f2:
         87:4d:3b:b9:30:85:7e:8e:c1:75:9c:68:55:d6:5a:37:14:46:
         05:aa:8e:05:0a:66:f3:48:5c:de:da:80:33:f9:85:b3:0d:3b:
         60:6c:18:71:98:74:d3:79:e0:47:e0:e9:ed:10:8b:cb:c8:11:
         ce:22:21:a4:86:d5:74:eb:ce:78:5a:ee:a5:bc:b0:a8:39:34:
         de:41:6f:58:f4:70:92:6b:60:12:56:54:e3:7c:5a:2e:42:d1:
         5d:85:f8:5a:62:f3:20:e2:64:0a:8a:c6:bc:bf:c6:51:0c:ad:
         26:9e:e0:5b:80:35:13:ab:65:e9:35:3a:0b:ab:73:ba:b2:88:
         09:30:e1:f9:e0:d3:a0:e7:f0:f9:b0:7f:ae:43:d2:01:b7:57:
         bc:fb:70:5b:85:61:f5:40:70:c0:35:71:de:13:2f:25:ba:05:
         c5:a6:57:d6:68:1e:6f:17:4d:03:1a:7a:44:22:fa:73:83:ab:
         77:42:31:6c:26:af:31:27:f2:67:3d:a4:be:c7:7a:06:30:64:
         2e:d8:9b:89:e3:6b:95:b5:b8:c8:95:d7:55:46:d2:ff:67:7a:
         af:0b:9e:45:bf:36:86:0e:72:e2:68:80:86:0e:2d:e2:be:13:
         3f:40:45:85:99:e1:3e:8b:1e:ba:7c:e1:8a:22:f6:a3:ec:c0:
         06:1e:52:ad:25:79:fc:5f:a8:79:8e:31:fe:6e:cc:f3:39:ff:
         3b:e4:84:c1:68:7d:b1:83:d6:a4:8f:18:ee:62:75:f0:d2:8a:
         e6:b2:49:c5:70:6c:3d:9b:ef:6a:84:d1:e3:19:31:23:41:1f:
         9c:93:51:36:1b:de:2c:19:b7:ed:3b:f6:aa:9e:23:6e:da:fe:
         e4:db:11:1f:ff:d3:e1:5f:10:7e:81:8f:e0:fd:a7:f9:10:2e:
         87:ca:8b:03:fd:99:3b:e6:4d:63:e5:a8:4a:8e:0b:23:ad:07:
         5a:11:76:46:6b:7e:44:89
-----BEGIN CERTIFICATE-----
MIIF/jCCA+agAwIBAgIBATANBgkqhkiG9w0BAQsFADCBjDELMAkGA1UEBhMCY24x
ETAPBgNVBAgMCExpYW9uaW5nMQ8wDQYDVQQHDAZEYUxpYW4xDjAMBgNVBAoMBUth
bGVjMRIwEAYDVQQLDAkxMjcuMC4wLjExEjAQBgNVBAMMCTEyNy4wLjAuMTEhMB8G
CSqGSIb3DQEJARYSaHljY3BxQGhvdG1haWwuY29tMB4XDTE4MDUyMDA3MTI1NVoX
DTE5MDUyMDA3MTI1NVowezELMAkGA1UEBhMCY24xETAPBgNVBAgMCExpYW9uaW5n
MQ4wDAYDVQQKDAVLYWxlYzESMBAGA1UECwwJMTI3LjAuMC4xMRIwEAYDVQQDDAkx
MjcuMC4wLjExITAfBgkqhkiG9w0BCQEWEmh5Y2NwcUBob3RtYWlsLmNvbTCCAiIw
DQYJKoZIhvcNAQEBBQADggIPADCCAgoCggIBAKgOqYw9kME485i1tCUKwXFEgsxm
dg0IiMz6jg0jKapm3jBaOrD/22WURclm/ymk4UV5P+b23XS0K5tZM/3N2FynlOvV
3jq040ulC0F6t3CE3uVIRM6b01FoNrAYrp1Q/ONA/7AwHaeiZyzCsX+NjWEnRc/T
Lxjv7PUhwfvhN/k/tiqTQX56jRJeJmBhUNuxBST+Zm+BYEL77I7mFK0M29VUnVrW
qFmKtLUnfuoSBU2+S20gxw03WSUMquWjTqH4rDVO+h98DK2FB33l40Hc7nTpyZZ1
FZzO8HPiFsduzqtcwuE8FQTQpZTFLK7YV6nyxU6IctvW8c+dxzVQeLYi550Hd0gT
yW6EiUamijKSPh24qACpk1ajg1YJ1dy90gb4es8xyrnfcJNMl6pxttT8lmGoKXDF
nCmqavlUbMrayAad/XAvYenUNcRkdJ0mdupfd8P0Vt0NG6kiAcZt3GHDVjpVQZ3B
4MnMVvNKrOfleB2CpQjC5o0ssCU6PJnB3XDkNSnHmuUD+7x8T8+3N7fZ38Xh55cr
39J9ez8QTlSMhDZS7Ok7rAZk/vYuWJ7H3lzvjIMDIC6SSjCr9vitO13b5EuaxSz/
e9OHFEGT1rh10RvAPTg7aYhp8oZarGuW+iXFzS2Npdz7pHboTJX1mV4C7B01+6Di
5Tn9QRlMb6UeXNf/AgMBAAGjezB5MAkGA1UdEwQCMAAwLAYJYIZIAYb4QgENBB8W
HU9wZW5TU0wgR2VuZXJhdGVkIENlcnRpZmljYXRlMB0GA1UdDgQWBBSsVqLDVMWb
urNbAw5aVnROnDYYfDAfBgNVHSMEGDAWgBSs5yhPmPqyzzWlX2EPP2p07vDlIjAN
BgkqhkiG9w0BAQsFAAOCAgEAtt+AQazMEXiuxEIDxH+g210QfclEUU8o5wXwIaNH
Q9AUToj3aeXEOFOMmNcmhXwOMJACcIjb1PkHjVQGhWumnOftxnN/ZuPUdxttmXwE
KNXUnOhA/Qkg696UnJANJ7FNcOEKhFwrKvFavlc+rKmtdNFq3YHTnKQfnYVBhUpa
nqfaUJ2/LABKdmPYwqBwByvyh007uTCFfo7BdZxoVdZaNxRGBaqOBQpm80hc3tqA
M/mFsw07YGwYcZh003ngR+Dp7RCLy8gRziIhpIbVdOvOeFrupbywqDk03kFvWPRw
kmtgElZU43xaLkLRXYX4WmLzIOJkCorGvL/GUQytJp7gW4A1E6tl6TU6C6tzurKI
CTDh+eDToOfw+bB/rkPSAbdXvPtwW4Vh9UBwwDVx3hMvJboFxaZX1mgebxdNAxp6
RCL6c4Ord0IxbCavMSfyZz2kvsd6BjBkLtibieNrlbW4yJXXVUbS/2d6rwueRb82
hg5y4miAhg4t4r4TP0BFhZnhPoseunzhiiL2o+zABh5SrSV5/F+oeY4x/m7M8zn/
O+SEwWh9sYPWpI8Y7mJ18NKK5rJJxXBsPZvvaoTR4xkxI0EfnJNRNhveLBm37Tv2
qp4jbtr+5NsRH//T4V8QfoGP4P2n+RAuh8qLA/2ZO+ZNY+WoSo4LI60HWhF2Rmt+
RIk=
-----END CERTIFICATE-----
